; Function Attrs: mustprogress nofree norecurse nosync nounwind memory(argmem: readwrite) uwtable
define void @_ZN9grpc_core23CompressionAlgorithmSetC2ESt16initializer_listI26grpc_compression_algorithmE(ptr noundef nonnull writeonly align 1 captures(none) dereferenceable(1) initializes((0, 1)) %0, ptr readonly %1, i64 %2) unnamed_addr #12 align 2 {
  store i8 0, ptr %0, align 1, !tbaa !6
  %4 = getelementptr inbounds nuw i32, ptr %1, i64 %2
  %.not8 = icmp eq i64 %2, 0
  br i1 %.not8, label %._crit_edge, label %.lr.ph

._crit_edge:                                      ; preds = %_ZN9grpc_core23CompressionAlgorithmSet3SetE26grpc_compression_algorithm.exit, %3
  ret void

.lr.ph:                                           ; preds = %3, %_ZN9grpc_core23CompressionAlgorithmSet3SetE26grpc_compression_algorithm.exit
  %.09 = phi ptr [ %13, %_ZN9grpc_core23CompressionAlgorithmSet3SetE26grpc_compression_algorithm.exit ], [ %1, %3 ]
  %5 = phi i8 [ %12, %_ZN9grpc_core23CompressionAlgorithmSet3SetE26grpc_compression_algorithm.exit ], [ 0, %3 ]
  %6 = load i32, ptr %.09, align 4, !tbaa !21
  %7 = icmp ult i32 %6, 3
  br i1 %7, label %8, label %_ZN9grpc_core23CompressionAlgorithmSet3SetE26grpc_compression_algorithm.exit

8:                                                ; preds = %.lr.ph
  %9 = trunc nuw i32 %6 to i8
  %10 = shl nuw nsw i8 1, %9
  %11 = or i8 %5, %10
  store i8 %11, ptr %0, align 1, !tbaa !6
  br label %_ZN9grpc_core23CompressionAlgorithmSet3SetE26grpc_compression_algorithm.exit

_ZN9grpc_core23CompressionAlgorithmSet3SetE26grpc_compression_algorithm.exit: ; preds = %.lr.ph, %8
  %12 = phi i8 [ %5, %.lr.ph ], [ %11, %8 ]
  %13 = getelementptr inbounds nuw i8, ptr %.09, i64 4
  %.not = icmp eq ptr %13, %4
  br i1 %.not, label %._crit_edge, label %.lr.ph
}